target datalayout = "e-m:e-p270:32:32-p271:32:32-p272:64:64-i64:64-i128:128-f80:128-n8:16:32:64-S128"
target triple = "x86_64-pc-linux-gnu"

%struct.AVFilterPad = type { ptr, i32, i32, %union.anon, ptr, ptr, ptr }
%union.anon = type { ptr }
%struct.AVFilterContext = type { ptr, ptr, ptr, ptr, ptr, i32, ptr, ptr, i32, ptr, ptr, i32, i32, ptr, ptr, ptr, ptr, i32, ptr, i32, i32 }
%struct.MaskedMinMaxContext = type { ptr, i32, i32, [4 x i32], [4 x i32], [4 x i32], i32, i32, %struct.FFFrameSync, ptr }
%struct.FFFrameSync = type { ptr, ptr, i32, %struct.AVRational, i64, ptr, ptr, i32, i32, i8, i8, ptr, i32, i32, i32, i32 }
%struct.AVRational = type { i32, i32 }
%struct.AVFilterLink = type { ptr, ptr, ptr, ptr, i32, i32, i32, i32, %struct.AVRational, i32, i32, i32, %struct.AVChannelLayout, %struct.AVRational, ptr, i32, %struct.AVFilterFormatsConfig, %struct.AVFilterFormatsConfig }
%struct.AVChannelLayout = type { i32, i32, %union.anon.1, ptr }
%union.anon.1 = type { i64 }
%struct.AVFilterFormatsConfig = type { ptr, ptr, ptr, ptr, ptr }
%struct.FilterLink = type { %struct.AVFilterLink, ptr, i64, i64, i32, i32, i64, i64, i64, i64, %struct.AVRational, ptr }
%struct.FFFrameSyncIn = type { i32, i32, %struct.AVRational, ptr, ptr, i64, i64, i8, i8, i32, i32 }

@.str.8 = private unnamed_addr constant [167 x i8] c"First input link %s parameters (size %dx%d) do not match the corresponding second input link %s parameters (%dx%d) and/or third input link %s parameters (size %dx%d)\0A\00", align 1

; Function Attrs: inlinehint nounwind uwtable
define internal ptr @ff_filter_link(ptr noundef %0) #5 {
  %2 = alloca ptr, align 8
  store ptr %0, ptr %2, align 8, !tbaa !30
  %3 = load ptr, ptr %2, align 8, !tbaa !30
  ret ptr %3
}

; Function Attrs: nounwind uwtable
define internal i32 @config_output(ptr noundef %0) #2 {
  %2 = alloca i32, align 4
  %3 = alloca ptr, align 8
  %4 = alloca ptr, align 8
  %5 = alloca ptr, align 8
  %6 = alloca ptr, align 8
  %7 = alloca ptr, align 8
  %8 = alloca ptr, align 8
  %9 = alloca ptr, align 8
  %10 = alloca ptr, align 8
  %11 = alloca ptr, align 8
  %12 = alloca i32, align 4
  %13 = alloca i32, align 4
  store ptr %0, ptr %3, align 8, !tbaa !30
  call void @llvm.lifetime.start.p0(i64 8, ptr %4) #9
  %14 = load ptr, ptr %3, align 8, !tbaa !30
  %15 = getelementptr inbounds nuw %struct.AVFilterLink, ptr %14, i32 0, i32 0
  %16 = load ptr, ptr %15, align 8, !tbaa !70
  store ptr %16, ptr %4, align 8, !tbaa !4
  call void @llvm.lifetime.start.p0(i64 8, ptr %5) #9
  %17 = load ptr, ptr %4, align 8, !tbaa !4
  %18 = getelementptr inbounds nuw %struct.AVFilterContext, ptr %17, i32 0, i32 9
  %19 = load ptr, ptr %18, align 8, !tbaa !9
  store ptr %19, ptr %5, align 8, !tbaa !22
  call void @llvm.lifetime.start.p0(i64 8, ptr %6) #9
  %20 = load ptr, ptr %4, align 8, !tbaa !4
  %21 = getelementptr inbounds nuw %struct.AVFilterContext, ptr %20, i32 0, i32 4
  %22 = load ptr, ptr %21, align 8, !tbaa !71
  %23 = getelementptr inbounds ptr, ptr %22, i64 0
  %24 = load ptr, ptr %23, align 8, !tbaa !30
  store ptr %24, ptr %6, align 8, !tbaa !30
  call void @llvm.lifetime.start.p0(i64 8, ptr %7) #9
  %25 = load ptr, ptr %4, align 8, !tbaa !4
  %26 = getelementptr inbounds nuw %struct.AVFilterContext, ptr %25, i32 0, i32 4
  %27 = load ptr, ptr %26, align 8, !tbaa !71
  %28 = getelementptr inbounds ptr, ptr %27, i64 1
  %29 = load ptr, ptr %28, align 8, !tbaa !30
  store ptr %29, ptr %7, align 8, !tbaa !30
  call void @llvm.lifetime.start.p0(i64 8, ptr %8) #9
  %30 = load ptr, ptr %4, align 8, !tbaa !4
  %31 = getelementptr inbounds nuw %struct.AVFilterContext, ptr %30, i32 0, i32 4
  %32 = load ptr, ptr %31, align 8, !tbaa !71
  %33 = getelementptr inbounds ptr, ptr %32, i64 2
  %34 = load ptr, ptr %33, align 8, !tbaa !30
  store ptr %34, ptr %8, align 8, !tbaa !30
  call void @llvm.lifetime.start.p0(i64 8, ptr %9) #9
  %35 = load ptr, ptr %6, align 8, !tbaa !30
  %36 = call ptr @ff_filter_link(ptr noundef %35)
  store ptr %36, ptr %9, align 8, !tbaa !72
  call void @llvm.lifetime.start.p0(i64 8, ptr %10) #9
  %37 = load ptr, ptr %3, align 8, !tbaa !30
  %38 = call ptr @ff_filter_link(ptr noundef %37)
  store ptr %38, ptr %10, align 8, !tbaa !72
  call void @llvm.lifetime.start.p0(i64 8, ptr %11) #9
  call void @llvm.lifetime.start.p0(i64 4, ptr %12) #9
  %39 = load ptr, ptr %6, align 8, !tbaa !30
  %40 = getelementptr inbounds nuw %struct.AVFilterLink, ptr %39, i32 0, i32 6
  %41 = load i32, ptr %40, align 8, !tbaa !43
  %42 = load ptr, ptr %7, align 8, !tbaa !30
  %43 = getelementptr inbounds nuw %struct.AVFilterLink, ptr %42, i32 0, i32 6
  %44 = load i32, ptr %43, align 8, !tbaa !43
  %45 = icmp ne i32 %41, %44
  br i1 %45, label %70, label %46

46:                                               ; preds = %1
  %47 = load ptr, ptr %6, align 8, !tbaa !30
  %48 = getelementptr inbounds nuw %struct.AVFilterLink, ptr %47, i32 0, i32 7
  %49 = load i32, ptr %48, align 4, !tbaa !48
  %50 = load ptr, ptr %7, align 8, !tbaa !30
  %51 = getelementptr inbounds nuw %struct.AVFilterLink, ptr %50, i32 0, i32 7
  %52 = load i32, ptr %51, align 4, !tbaa !48
  %53 = icmp ne i32 %49, %52
  br i1 %53, label %70, label %54

54:                                               ; preds = %46
  %55 = load ptr, ptr %6, align 8, !tbaa !30
  %56 = getelementptr inbounds nuw %struct.AVFilterLink, ptr %55, i32 0, i32 6
  %57 = load i32, ptr %56, align 8, !tbaa !43
  %58 = load ptr, ptr %8, align 8, !tbaa !30
  %59 = getelementptr inbounds nuw %struct.AVFilterLink, ptr %58, i32 0, i32 6
  %60 = load i32, ptr %59, align 8, !tbaa !43
  %61 = icmp ne i32 %57, %60
  br i1 %61, label %70, label %62

62:                                               ; preds = %54
  %63 = load ptr, ptr %6, align 8, !tbaa !30
  %64 = getelementptr inbounds nuw %struct.AVFilterLink, ptr %63, i32 0, i32 7
  %65 = load i32, ptr %64, align 4, !tbaa !48
  %66 = load ptr, ptr %8, align 8, !tbaa !30
  %67 = getelementptr inbounds nuw %struct.AVFilterLink, ptr %66, i32 0, i32 7
  %68 = load i32, ptr %67, align 4, !tbaa !48
  %69 = icmp ne i32 %65, %68
  br i1 %69, label %70, label %108

70:                                               ; preds = %62, %54, %46, %1
  %71 = load ptr, ptr %4, align 8, !tbaa !4
  %72 = load ptr, ptr %4, align 8, !tbaa !4
  %73 = getelementptr inbounds nuw %struct.AVFilterContext, ptr %72, i32 0, i32 3
  %74 = load ptr, ptr %73, align 8, !tbaa !74
  %75 = getelementptr inbounds %struct.AVFilterPad, ptr %74, i64 0
  %76 = getelementptr inbounds nuw %struct.AVFilterPad, ptr %75, i32 0, i32 0
  %77 = load ptr, ptr %76, align 8, !tbaa !75
  %78 = load ptr, ptr %6, align 8, !tbaa !30
  %79 = getelementptr inbounds nuw %struct.AVFilterLink, ptr %78, i32 0, i32 6
  %80 = load i32, ptr %79, align 8, !tbaa !43
  %81 = load ptr, ptr %6, align 8, !tbaa !30
  %82 = getelementptr inbounds nuw %struct.AVFilterLink, ptr %81, i32 0, i32 7
  %83 = load i32, ptr %82, align 4, !tbaa !48
  %84 = load ptr, ptr %4, align 8, !tbaa !4
  %85 = getelementptr inbounds nuw %struct.AVFilterContext, ptr %84, i32 0, i32 3
  %86 = load ptr, ptr %85, align 8, !tbaa !74
  %87 = getelementptr inbounds %struct.AVFilterPad, ptr %86, i64 1
  %88 = getelementptr inbounds nuw %struct.AVFilterPad, ptr %87, i32 0, i32 0
  %89 = load ptr, ptr %88, align 8, !tbaa !75
  %90 = load ptr, ptr %7, align 8, !tbaa !30
  %91 = getelementptr inbounds nuw %struct.AVFilterLink, ptr %90, i32 0, i32 6
  %92 = load i32, ptr %91, align 8, !tbaa !43
  %93 = load ptr, ptr %7, align 8, !tbaa !30
  %94 = getelementptr inbounds nuw %struct.AVFilterLink, ptr %93, i32 0, i32 7
  %95 = load i32, ptr %94, align 4, !tbaa !48
  %96 = load ptr, ptr %4, align 8, !tbaa !4
  %97 = getelementptr inbounds nuw %struct.AVFilterContext, ptr %96, i32 0, i32 3
  %98 = load ptr, ptr %97, align 8, !tbaa !74
  %99 = getelementptr inbounds %struct.AVFilterPad, ptr %98, i64 2
  %100 = getelementptr inbounds nuw %struct.AVFilterPad, ptr %99, i32 0, i32 0
  %101 = load ptr, ptr %100, align 8, !tbaa !75
  %102 = load ptr, ptr %8, align 8, !tbaa !30
  %103 = getelementptr inbounds nuw %struct.AVFilterLink, ptr %102, i32 0, i32 6
  %104 = load i32, ptr %103, align 8, !tbaa !43
  %105 = load ptr, ptr %8, align 8, !tbaa !30
  %106 = getelementptr inbounds nuw %struct.AVFilterLink, ptr %105, i32 0, i32 7
  %107 = load i32, ptr %106, align 4, !tbaa !48
  call void (ptr, i32, ptr, ...) @av_log(ptr noundef %71, i32 noundef 16, ptr noundef @.str.8, ptr noundef %77, i32 noundef %80, i32 noundef %83, ptr noundef %89, i32 noundef %92, i32 noundef %95, ptr noundef %101, i32 noundef %104, i32 noundef %107)
  store i32 -22, ptr %2, align 4
  store i32 1, ptr %13, align 4
  br label %197

108:                                              ; preds = %62
  %109 = load ptr, ptr %6, align 8, !tbaa !30
  %110 = getelementptr inbounds nuw %struct.AVFilterLink, ptr %109, i32 0, i32 6
  %111 = load i32, ptr %110, align 8, !tbaa !43
  %112 = load ptr, ptr %3, align 8, !tbaa !30
  %113 = getelementptr inbounds nuw %struct.AVFilterLink, ptr %112, i32 0, i32 6
  store i32 %111, ptr %113, align 8, !tbaa !43
  %114 = load ptr, ptr %6, align 8, !tbaa !30
  %115 = getelementptr inbounds nuw %struct.AVFilterLink, ptr %114, i32 0, i32 7
  %116 = load i32, ptr %115, align 4, !tbaa !48
  %117 = load ptr, ptr %3, align 8, !tbaa !30
  %118 = getelementptr inbounds nuw %struct.AVFilterLink, ptr %117, i32 0, i32 7
  store i32 %116, ptr %118, align 4, !tbaa !48
  %119 = load ptr, ptr %3, align 8, !tbaa !30
  %120 = getelementptr inbounds nuw %struct.AVFilterLink, ptr %119, i32 0, i32 8
  %121 = load ptr, ptr %6, align 8, !tbaa !30
  %122 = getelementptr inbounds nuw %struct.AVFilterLink, ptr %121, i32 0, i32 8
  call void @llvm.memcpy.p0.p0.i64(ptr align 8 %120, ptr align 8 %122, i64 8, i1 false), !tbaa.struct !77
  %123 = load ptr, ptr %10, align 8, !tbaa !72
  %124 = getelementptr inbounds nuw %struct.FilterLink, ptr %123, i32 0, i32 10
  %125 = load ptr, ptr %9, align 8, !tbaa !72
  %126 = getelementptr inbounds nuw %struct.FilterLink, ptr %125, i32 0, i32 10
  call void @llvm.memcpy.p0.p0.i64(ptr align 8 %124, ptr align 8 %126, i64 8, i1 false), !tbaa.struct !77
  %127 = load ptr, ptr %5, align 8, !tbaa !22
  %128 = getelementptr inbounds nuw %struct.MaskedMinMaxContext, ptr %127, i32 0, i32 8
  %129 = load ptr, ptr %4, align 8, !tbaa !4
  %130 = call i32 @ff_framesync_init(ptr noundef %128, ptr noundef %129, i32 noundef 3)
  store i32 %130, ptr %12, align 4, !tbaa !44
  %131 = icmp slt i32 %130, 0
  br i1 %131, label %132, label %134

132:                                              ; preds = %108
  %133 = load i32, ptr %12, align 4, !tbaa !44
  store i32 %133, ptr %2, align 4
  store i32 1, ptr %13, align 4
  br label %197

134:                                              ; preds = %108
  %135 = load ptr, ptr %5, align 8, !tbaa !22
  %136 = getelementptr inbounds nuw %struct.MaskedMinMaxContext, ptr %135, i32 0, i32 8
  %137 = getelementptr inbounds nuw %struct.FFFrameSync, ptr %136, i32 0, i32 11
  %138 = load ptr, ptr %137, align 8, !tbaa !78
  store ptr %138, ptr %11, align 8, !tbaa !79
  %139 = load ptr, ptr %11, align 8, !tbaa !79
  %140 = getelementptr inbounds %struct.FFFrameSyncIn, ptr %139, i64 0
  %141 = getelementptr inbounds nuw %struct.FFFrameSyncIn, ptr %140, i32 0, i32 2
  %142 = load ptr, ptr %6, align 8, !tbaa !30
  %143 = getelementptr inbounds nuw %struct.AVFilterLink, ptr %142, i32 0, i32 13
  call void @llvm.memcpy.p0.p0.i64(ptr align 8 %141, ptr align 8 %143, i64 8, i1 false), !tbaa.struct !77
  %144 = load ptr, ptr %11, align 8, !tbaa !79
  %145 = getelementptr inbounds %struct.FFFrameSyncIn, ptr %144, i64 1
  %146 = getelementptr inbounds nuw %struct.FFFrameSyncIn, ptr %145, i32 0, i32 2
  %147 = load ptr, ptr %7, align 8, !tbaa !30
  %148 = getelementptr inbounds nuw %struct.AVFilterLink, ptr %147, i32 0, i32 13
  call void @llvm.memcpy.p0.p0.i64(ptr align 8 %146, ptr align 8 %148, i64 8, i1 false), !tbaa.struct !77
  %149 = load ptr, ptr %11, align 8, !tbaa !79
  %150 = getelementptr inbounds %struct.FFFrameSyncIn, ptr %149, i64 2
  %151 = getelementptr inbounds nuw %struct.FFFrameSyncIn, ptr %150, i32 0, i32 2
  %152 = load ptr, ptr %8, align 8, !tbaa !30
  %153 = getelementptr inbounds nuw %struct.AVFilterLink, ptr %152, i32 0, i32 13
  call void @llvm.memcpy.p0.p0.i64(ptr align 8 %151, ptr align 8 %153, i64 8, i1 false), !tbaa.struct !77
  %154 = load ptr, ptr %11, align 8, !tbaa !79
  %155 = getelementptr inbounds %struct.FFFrameSyncIn, ptr %154, i64 0
  %156 = getelementptr inbounds nuw %struct.FFFrameSyncIn, ptr %155, i32 0, i32 9
  store i32 1, ptr %156, align 4, !tbaa !80
  %157 = load ptr, ptr %11, align 8, !tbaa !79
  %158 = getelementptr inbounds %struct.FFFrameSyncIn, ptr %157, i64 0
  %159 = getelementptr inbounds nuw %struct.FFFrameSyncIn, ptr %158, i32 0, i32 0
  store i32 0, ptr %159, align 8, !tbaa !83
  %160 = load ptr, ptr %11, align 8, !tbaa !79
  %161 = getelementptr inbounds %struct.FFFrameSyncIn, ptr %160, i64 0
  %162 = getelementptr inbounds nuw %struct.FFFrameSyncIn, ptr %161, i32 0, i32 1
  store i32 2, ptr %162, align 4, !tbaa !84
  %163 = load ptr, ptr %11, align 8, !tbaa !79
  %164 = getelementptr inbounds %struct.FFFrameSyncIn, ptr %163, i64 1
  %165 = getelementptr inbounds nuw %struct.FFFrameSyncIn, ptr %164, i32 0, i32 9
  store i32 1, ptr %165, align 4, !tbaa !80
  %166 = load ptr, ptr %11, align 8, !tbaa !79
  %167 = getelementptr inbounds %struct.FFFrameSyncIn, ptr %166, i64 1
  %168 = getelementptr inbounds nuw %struct.FFFrameSyncIn, ptr %167, i32 0, i32 0
  store i32 0, ptr %168, align 8, !tbaa !83
  %169 = load ptr, ptr %11, align 8, !tbaa !79
  %170 = getelementptr inbounds %struct.FFFrameSyncIn, ptr %169, i64 1
  %171 = getelementptr inbounds nuw %struct.FFFrameSyncIn, ptr %170, i32 0, i32 1
  store i32 2, ptr %171, align 4, !tbaa !84
  %172 = load ptr, ptr %11, align 8, !tbaa !79
  %173 = getelementptr inbounds %struct.FFFrameSyncIn, ptr %172, i64 2
  %174 = getelementptr inbounds nuw %struct.FFFrameSyncIn, ptr %173, i32 0, i32 9
  store i32 1, ptr %174, align 4, !tbaa !80
  %175 = load ptr, ptr %11, align 8, !tbaa !79
  %176 = getelementptr inbounds %struct.FFFrameSyncIn, ptr %175, i64 2
  %177 = getelementptr inbounds nuw %struct.FFFrameSyncIn, ptr %176, i32 0, i32 0
  store i32 0, ptr %177, align 8, !tbaa !83
  %178 = load ptr, ptr %11, align 8, !tbaa !79
  %179 = getelementptr inbounds %struct.FFFrameSyncIn, ptr %178, i64 2
  %180 = getelementptr inbounds nuw %struct.FFFrameSyncIn, ptr %179, i32 0, i32 1
  store i32 2, ptr %180, align 4, !tbaa !84
  %181 = load ptr, ptr %5, align 8, !tbaa !22
  %182 = load ptr, ptr %5, align 8, !tbaa !22
  %183 = getelementptr inbounds nuw %struct.MaskedMinMaxContext, ptr %182, i32 0, i32 8
  %184 = getelementptr inbounds nuw %struct.FFFrameSync, ptr %183, i32 0, i32 6
  store ptr %181, ptr %184, align 8, !tbaa !85
  %185 = load ptr, ptr %5, align 8, !tbaa !22
  %186 = getelementptr inbounds nuw %struct.MaskedMinMaxContext, ptr %185, i32 0, i32 8
  %187 = getelementptr inbounds nuw %struct.FFFrameSync, ptr %186, i32 0, i32 5
  store ptr @process_frame, ptr %187, align 8, !tbaa !86
  %188 = load ptr, ptr %5, align 8, !tbaa !22
  %189 = getelementptr inbounds nuw %struct.MaskedMinMaxContext, ptr %188, i32 0, i32 8
  %190 = call i32 @ff_framesync_configure(ptr noundef %189)
  store i32 %190, ptr %12, align 4, !tbaa !44
  %191 = load ptr, ptr %3, align 8, !tbaa !30
  %192 = getelementptr inbounds nuw %struct.AVFilterLink, ptr %191, i32 0, i32 13
  %193 = load ptr, ptr %5, align 8, !tbaa !22
  %194 = getelementptr inbounds nuw %struct.MaskedMinMaxContext, ptr %193, i32 0, i32 8
  %195 = getelementptr inbounds nuw %struct.FFFrameSync, ptr %194, i32 0, i32 3
  call void @llvm.memcpy.p0.p0.i64(ptr align 8 %192, ptr align 4 %195, i64 8, i1 false), !tbaa.struct !77
  %196 = load i32, ptr %12, align 4, !tbaa !44
  store i32 %196, ptr %2, align 4
  store i32 1, ptr %13, align 4
  br label %197

197:                                              ; preds = %134, %132, %70
  call void @llvm.lifetime.end.p0(i64 4, ptr %12) #9
  call void @llvm.lifetime.end.p0(i64 8, ptr %11) #9
  call void @llvm.lifetime.end.p0(i64 8, ptr %10) #9
  call void @llvm.lifetime.end.p0(i64 8, ptr %9) #9
  call void @llvm.lifetime.end.p0(i64 8, ptr %8) #9
  call void @llvm.lifetime.end.p0(i64 8, ptr %7) #9
  call void @llvm.lifetime.end.p0(i64 8, ptr %6) #9
  call void @llvm.lifetime.end.p0(i64 8, ptr %5) #9
  call void @llvm.lifetime.end.p0(i64 8, ptr %4) #9
  %198 = load i32, ptr %2, align 4
  ret i32 %198
}